target datalayout = "e-m:e-p270:32:32-p271:32:32-p272:64:64-i64:64-i128:128-f80:128-n8:16:32:64-S128"
target triple = "x86_64-unknown-linux-gnu"

%"class.icu_75::ScriptSet" = type { [7 x i32] }

; Function Attrs: mustprogress nounwind uwtable
define internal noundef signext i8 @_ZL9U_FAILURE10UErrorCode(i32 noundef %code) #0 {
entry:
  %code.addr = alloca i32, align 4
  store i32 %code, ptr %code.addr, align 4
  %0 = load i32, ptr %code.addr, align 4
  %cmp = icmp sgt i32 %0, 0
  %conv = zext i1 %cmp to i8
  ret i8 %conv
}

; Function Attrs: mustprogress uwtable
define noundef nonnull align 4 dereferenceable(28) ptr @_ZN6icu_759ScriptSet3setE11UScriptCodeR10UErrorCode(ptr noundef nonnull align 4 dereferenceable(28) %this, i32 noundef %script, ptr noundef nonnull align 4 dereferenceable(4) %status) #2 align 2 {
entry:
  %retval = alloca ptr, align 8
  %this.addr = alloca ptr, align 8
  %script.addr = alloca i32, align 4
  %status.addr = alloca ptr, align 8
  %index = alloca i32, align 4
  %bit = alloca i32, align 4
  store ptr %this, ptr %this.addr, align 8
  store i32 %script, ptr %script.addr, align 4
  store ptr %status, ptr %status.addr, align 8
  %this1 = load ptr, ptr %this.addr, align 8
  %0 = load ptr, ptr %status.addr, align 8
  %1 = load i32, ptr %0, align 4
  %call = call noundef signext i8 @_ZL9U_FAILURE10UErrorCode(i32 noundef %1)
  %tobool = icmp ne i8 %call, 0
  br i1 %tobool, label %if.then, label %if.end

if.then:                                          ; preds = %entry
  store ptr %this1, ptr %retval, align 8
  br label %return

if.end:                                           ; preds = %entry
  %2 = load i32, ptr %script.addr, align 4
  %cmp = icmp slt i32 %2, 0
  br i1 %cmp, label %if.then3, label %lor.lhs.false

lor.lhs.false:                                    ; preds = %if.end
  %3 = load i32, ptr %script.addr, align 4
  %cmp2 = icmp sge i32 %3, 224
  br i1 %cmp2, label %if.then3, label %if.end4

if.then3:                                         ; preds = %lor.lhs.false, %if.end
  %4 = load ptr, ptr %status.addr, align 8
  store i32 1, ptr %4, align 4
  store ptr %this1, ptr %retval, align 8
  br label %return

if.end4:                                          ; preds = %lor.lhs.false
  %5 = load i32, ptr %script.addr, align 4
  %div = sdiv i32 %5, 32
  store i32 %div, ptr %index, align 4
  %6 = load i32, ptr %script.addr, align 4
  %and = and i32 %6, 31
  %shl = shl i32 1, %and
  store i32 %shl, ptr %bit, align 4
  %7 = load i32, ptr %bit, align 4
  %bits = getelementptr inbounds %"class.icu_75::ScriptSet", ptr %this1, i32 0, i32 0
  %8 = load i32, ptr %index, align 4
  %idxprom = zext i32 %8 to i64
  %arrayidx = getelementptr inbounds [7 x i32], ptr %bits, i64 0, i64 %idxprom
  %9 = load i32, ptr %arrayidx, align 4
  %or = or i32 %9, %7
  store i32 %or, ptr %arrayidx, align 4
  store ptr %this1, ptr %retval, align 8
  br label %return

return:                                           ; preds = %if.end4, %if.then3, %if.then
  %10 = load ptr, ptr %retval, align 8
  ret ptr %10
}