; Function Attrs: mustprogress nofree norecurse nosync nounwind willreturn memory(argmem: readwrite) uwtable
define noundef nonnull align 4 dereferenceable(28) ptr @_ZN6icu_759ScriptSet3setE11UScriptCodeR10UErrorCode(ptr noundef nonnull returned align 4 dereferenceable(28) %this, i32 noundef %script, ptr nocapture noundef nonnull align 4 dereferenceable(4) %status) local_unnamed_addr #3 align 2 {
entry:
  %0 = load i32, ptr %status, align 4
  %cmp.i = icmp slt i32 %0, 1
  br i1 %cmp.i, label %if.end, label %return

if.end:                                           ; preds = %entry
  %or.cond = icmp ugt i32 %script, 223
  br i1 %or.cond, label %if.then3, label %if.end4

if.then3:                                         ; preds = %if.end
  store i32 1, ptr %status, align 4
  br label %return

if.end4:                                          ; preds = %if.end
  %div5 = lshr i32 %script, 5
  %and = and i32 %script, 31
  %shl = shl nuw i32 1, %and
  %idxprom = zext nneg i32 %div5 to i64
  %arrayidx = getelementptr inbounds [7 x i32], ptr %this, i64 0, i64 %idxprom
  %1 = load i32, ptr %arrayidx, align 4
  %or = or i32 %1, %shl
  store i32 %or, ptr %arrayidx, align 4
  br label %return

return:                                           ; preds = %entry, %if.end4, %if.then3
  ret ptr %this
}